target datalayout = "e-m:e-p270:32:32-p271:32:32-p272:64:64-i64:64-i128:128-f80:128-n8:16:32:64-S128"
target triple = "x86_64-pc-linux-gnu"

%struct.Intp_Man_t_ = type { ptr, i32, i32, i32, i32, i32, i32, i32, ptr, ptr, ptr, ptr, ptr, ptr, i32, i32, ptr, ptr, ptr, i32, i32, i64, i64, i64 }
%struct.Vec_Ptr_t_ = type { i32, i32, ptr }
%struct.Vec_Vec_t_ = type { i32, i32, ptr }

; Function Attrs: nounwind uwtable
define internal void @Vec_PtrFree(ptr noundef %0) #0 {
  %2 = alloca ptr, align 8
  store ptr %0, ptr %2, align 8
  %3 = load ptr, ptr %2, align 8
  %4 = getelementptr inbounds %struct.Vec_Ptr_t_, ptr %3, i32 0, i32 2
  %5 = load ptr, ptr %4, align 8
  %6 = icmp ne ptr %5, null
  br i1 %6, label %7, label %13

7:                                                ; preds = %1
  %8 = load ptr, ptr %2, align 8
  %9 = getelementptr inbounds %struct.Vec_Ptr_t_, ptr %8, i32 0, i32 2
  %10 = load ptr, ptr %9, align 8
  call void @free(ptr noundef %10) #11
  %11 = load ptr, ptr %2, align 8
  %12 = getelementptr inbounds %struct.Vec_Ptr_t_, ptr %11, i32 0, i32 2
  store ptr null, ptr %12, align 8
  br label %14

13:                                               ; preds = %1
  br label %14

14:                                               ; preds = %13, %7
  %15 = load ptr, ptr %2, align 8
  %16 = icmp ne ptr %15, null
  br i1 %16, label %17, label %19

17:                                               ; preds = %14
  %18 = load ptr, ptr %2, align 8
  call void @free(ptr noundef %18) #11
  store ptr null, ptr %2, align 8
  br label %20

19:                                               ; preds = %14
  br label %20

20:                                               ; preds = %19, %17
  ret void
}

; Function Attrs: nounwind uwtable
define internal ptr @Vec_VecEntry(ptr noundef %0, i32 noundef %1) #0 {
  %3 = alloca ptr, align 8
  %4 = alloca i32, align 4
  store ptr %0, ptr %3, align 8
  store i32 %1, ptr %4, align 4
  %5 = load ptr, ptr %3, align 8
  %6 = getelementptr inbounds %struct.Vec_Vec_t_, ptr %5, i32 0, i32 2
  %7 = load ptr, ptr %6, align 8
  %8 = load i32, ptr %4, align 4
  %9 = sext i32 %8 to i64
  %10 = getelementptr inbounds ptr, ptr %7, i64 %9
  %11 = load ptr, ptr %10, align 8
  ret ptr %11
}

; Function Attrs: nounwind uwtable
define internal i32 @Vec_VecSize(ptr noundef %0) #0 {
  %2 = alloca ptr, align 8
  store ptr %0, ptr %2, align 8
  %3 = load ptr, ptr %2, align 8
  %4 = getelementptr inbounds %struct.Vec_Vec_t_, ptr %3, i32 0, i32 1
  %5 = load i32, ptr %4, align 4
  ret i32 %5
}

; Function Attrs: nounwind uwtable
define internal void @Vec_VecFree(ptr noundef %0) #0 {
  %2 = alloca ptr, align 8
  %3 = alloca ptr, align 8
  %4 = alloca i32, align 4
  store ptr %0, ptr %2, align 8
  store i32 0, ptr %4, align 4
  br label %5

5:                                                ; preds = %22, %1
  %6 = load i32, ptr %4, align 4
  %7 = load ptr, ptr %2, align 8
  %8 = call i32 @Vec_VecSize(ptr noundef %7)
  %9 = icmp slt i32 %6, %8
  br i1 %9, label %10, label %14

10:                                               ; preds = %5
  %11 = load ptr, ptr %2, align 8
  %12 = load i32, ptr %4, align 4
  %13 = call ptr @Vec_VecEntry(ptr noundef %11, i32 noundef %12)
  store ptr %13, ptr %3, align 8
  br label %14

14:                                               ; preds = %10, %5
  %15 = phi i1 [ false, %5 ], [ true, %10 ]
  br i1 %15, label %16, label %25

16:                                               ; preds = %14
  %17 = load ptr, ptr %3, align 8
  %18 = icmp ne ptr %17, null
  br i1 %18, label %19, label %21

19:                                               ; preds = %16
  %20 = load ptr, ptr %3, align 8
  call void @Vec_PtrFree(ptr noundef %20)
  br label %21

21:                                               ; preds = %19, %16
  br label %22

22:                                               ; preds = %21
  %23 = load i32, ptr %4, align 4
  %24 = add nsw i32 %23, 1
  store i32 %24, ptr %4, align 4
  br label %5, !llvm.loop !7

25:                                               ; preds = %14
  %26 = load ptr, ptr %2, align 8
  call void @Vec_PtrFree(ptr noundef %26)
  ret void
}

; Function Attrs: nounwind uwtable
define void @Intp_ManFree(ptr noundef %0) #0 {
  %2 = alloca ptr, align 8
  store ptr %0, ptr %2, align 8
  %3 = load ptr, ptr %2, align 8
  %4 = getelementptr inbounds %struct.Intp_Man_t_, ptr %3, i32 0, i32 13
  %5 = load ptr, ptr %4, align 8
  call void @Vec_VecFree(ptr noundef %5)
  %6 = load ptr, ptr %2, align 8
  %7 = getelementptr inbounds %struct.Intp_Man_t_, ptr %6, i32 0, i32 16
  %8 = load ptr, ptr %7, align 8
  %9 = icmp ne ptr %8, null
  br i1 %9, label %10, label %16

10:                                               ; preds = %1
  %11 = load ptr, ptr %2, align 8
  %12 = getelementptr inbounds %struct.Intp_Man_t_, ptr %11, i32 0, i32 16
  %13 = load ptr, ptr %12, align 8
  call void @free(ptr noundef %13) #11
  %14 = load ptr, ptr %2, align 8
  %15 = getelementptr inbounds %struct.Intp_Man_t_, ptr %14, i32 0, i32 16
  store ptr null, ptr %15, align 8
  br label %17

16:                                               ; preds = %1
  br label %17

17:                                               ; preds = %16, %10
  %18 = load ptr, ptr %2, align 8
  %19 = getelementptr inbounds %struct.Intp_Man_t_, ptr %18, i32 0, i32 8
  %20 = load ptr, ptr %19, align 8
  %21 = icmp ne ptr %20, null
  br i1 %21, label %22, label %28

22:                                               ; preds = %17
  %23 = load ptr, ptr %2, align 8
  %24 = getelementptr inbounds %struct.Intp_Man_t_, ptr %23, i32 0, i32 8
  %25 = load ptr, ptr %24, align 8
  call void @free(ptr noundef %25) #11
  %26 = load ptr, ptr %2, align 8
  %27 = getelementptr inbounds %struct.Intp_Man_t_, ptr %26, i32 0, i32 8
  store ptr null, ptr %27, align 8
  br label %29

28:                                               ; preds = %17
  br label %29

29:                                               ; preds = %28, %22
  %30 = load ptr, ptr %2, align 8
  %31 = getelementptr inbounds %struct.Intp_Man_t_, ptr %30, i32 0, i32 9
  %32 = load ptr, ptr %31, align 8
  %33 = icmp ne ptr %32, null
  br i1 %33, label %34, label %40

34:                                               ; preds = %29
  %35 = load ptr, ptr %2, align 8
  %36 = getelementptr inbounds %struct.Intp_Man_t_, ptr %35, i32 0, i32 9
  %37 = load ptr, ptr %36, align 8
  call void @free(ptr noundef %37) #11
  %38 = load ptr, ptr %2, align 8
  %39 = getelementptr inbounds %struct.Intp_Man_t_, ptr %38, i32 0, i32 9
  store ptr null, ptr %39, align 8
  br label %41

40:                                               ; preds = %29
  br label %41

41:                                               ; preds = %40, %34
  %42 = load ptr, ptr %2, align 8
  %43 = getelementptr inbounds %struct.Intp_Man_t_, ptr %42, i32 0, i32 10
  %44 = load ptr, ptr %43, align 8
  %45 = icmp ne ptr %44, null
  br i1 %45, label %46, label %52

46:                                               ; preds = %41
  %47 = load ptr, ptr %2, align 8
  %48 = getelementptr inbounds %struct.Intp_Man_t_, ptr %47, i32 0, i32 10
  %49 = load ptr, ptr %48, align 8
  call void @free(ptr noundef %49) #11
  %50 = load ptr, ptr %2, align 8
  %51 = getelementptr inbounds %struct.Intp_Man_t_, ptr %50, i32 0, i32 10
  store ptr null, ptr %51, align 8
  br label %53

52:                                               ; preds = %41
  br label %53

53:                                               ; preds = %52, %46
  %54 = load ptr, ptr %2, align 8
  %55 = getelementptr inbounds %struct.Intp_Man_t_, ptr %54, i32 0, i32 11
  %56 = load ptr, ptr %55, align 8
  %57 = icmp ne ptr %56, null
  br i1 %57, label %58, label %64

58:                                               ; preds = %53
  %59 = load ptr, ptr %2, align 8
  %60 = getelementptr inbounds %struct.Intp_Man_t_, ptr %59, i32 0, i32 11
  %61 = load ptr, ptr %60, align 8
  call void @free(ptr noundef %61) #11
  %62 = load ptr, ptr %2, align 8
  %63 = getelementptr inbounds %struct.Intp_Man_t_, ptr %62, i32 0, i32 11
  store ptr null, ptr %63, align 8
  br label %65

64:                                               ; preds = %53
  br label %65

65:                                               ; preds = %64, %58
  %66 = load ptr, ptr %2, align 8
  %67 = getelementptr inbounds %struct.Intp_Man_t_, ptr %66, i32 0, i32 12
  %68 = load ptr, ptr %67, align 8
  %69 = icmp ne ptr %68, null
  br i1 %69, label %70, label %76

70:                                               ; preds = %65
  %71 = load ptr, ptr %2, align 8
  %72 = getelementptr inbounds %struct.Intp_Man_t_, ptr %71, i32 0, i32 12
  %73 = load ptr, ptr %72, align 8
  call void @free(ptr noundef %73) #11
  %74 = load ptr, ptr %2, align 8
  %75 = getelementptr inbounds %struct.Intp_Man_t_, ptr %74, i32 0, i32 12
  store ptr null, ptr %75, align 8
  br label %77

76:                                               ; preds = %65
  br label %77

77:                                               ; preds = %76, %70
  %78 = load ptr, ptr %2, align 8
  %79 = getelementptr inbounds %struct.Intp_Man_t_, ptr %78, i32 0, i32 18
  %80 = load ptr, ptr %79, align 8
  %81 = icmp ne ptr %80, null
  br i1 %81, label %82, label %88

82:                                               ; preds = %77
  %83 = load ptr, ptr %2, align 8
  %84 = getelementptr inbounds %struct.Intp_Man_t_, ptr %83, i32 0, i32 18
  %85 = load ptr, ptr %84, align 8
  call void @free(ptr noundef %85) #11
  %86 = load ptr, ptr %2, align 8
  %87 = getelementptr inbounds %struct.Intp_Man_t_, ptr %86, i32 0, i32 18
  store ptr null, ptr %87, align 8
  br label %89

88:                                               ; preds = %77
  br label %89

89:                                               ; preds = %88, %82
  %90 = load ptr, ptr %2, align 8
  %91 = icmp ne ptr %90, null
  br i1 %91, label %92, label %94

92:                                               ; preds = %89
  %93 = load ptr, ptr %2, align 8
  call void @free(ptr noundef %93) #11
  store ptr null, ptr %2, align 8
  br label %95

94:                                               ; preds = %89
  br label %95

95:                                               ; preds = %94, %92
  ret void
}