; Function Attrs: nounwind uwtable
define void @Intp_ManFree(ptr noundef captures(none) %0) local_unnamed_addr #3 {
  %2 = getelementptr inbounds nuw i8, ptr %0, i64 80
  %3 = load ptr, ptr %2, align 8
  %4 = getelementptr i8, ptr %3, i64 4
  %.val11.i = load i32, ptr %4, align 4
  %5 = icmp sgt i32 %.val11.i, 0
  br i1 %5, label %.lr.ph.i, label %.critedge.i

.lr.ph.i:                                         ; preds = %1
  %6 = getelementptr i8, ptr %3, i64 8
  br label %7

7:                                                ; preds = %14, %.lr.ph.i
  %.val14.i = phi i32 [ %.val11.i, %.lr.ph.i ], [ %.val.i, %14 ]
  %indvars.iv.i = phi i64 [ 0, %.lr.ph.i ], [ %indvars.iv.next.i, %14 ]
  %.val8.i = load ptr, ptr %6, align 8
  %8 = getelementptr inbounds nuw ptr, ptr %.val8.i, i64 %indvars.iv.i
  %9 = load ptr, ptr %8, align 8
  %.not.i = icmp eq ptr %9, null
  br i1 %.not.i, label %14, label %10

10:                                               ; preds = %7
  %11 = getelementptr inbounds nuw i8, ptr %9, i64 8
  %12 = load ptr, ptr %11, align 8
  %.not.i.i = icmp eq ptr %12, null
  br i1 %.not.i.i, label %Vec_PtrFree.exit.i, label %13

13:                                               ; preds = %10
  tail call void @free(ptr noundef nonnull %12) #16
  br label %Vec_PtrFree.exit.i

Vec_PtrFree.exit.i:                               ; preds = %13, %10
  tail call void @free(ptr noundef nonnull %9) #16
  %.val.pre.i = load i32, ptr %4, align 4
  br label %14

14:                                               ; preds = %Vec_PtrFree.exit.i, %7
  %.val.i = phi i32 [ %.val14.i, %7 ], [ %.val.pre.i, %Vec_PtrFree.exit.i ]
  %indvars.iv.next.i = add nuw nsw i64 %indvars.iv.i, 1
  %15 = sext i32 %.val.i to i64
  %16 = icmp slt i64 %indvars.iv.next.i, %15
  br i1 %16, label %7, label %.critedge.i, !llvm.loop !7

.critedge.i:                                      ; preds = %14, %1
  %17 = getelementptr inbounds nuw i8, ptr %3, i64 8
  %18 = load ptr, ptr %17, align 8
  %.not.i9.i = icmp eq ptr %18, null
  br i1 %.not.i9.i, label %Vec_VecFree.exit, label %19

19:                                               ; preds = %.critedge.i
  tail call void @free(ptr noundef nonnull %18) #16
  br label %Vec_VecFree.exit

Vec_VecFree.exit:                                 ; preds = %.critedge.i, %19
  tail call void @free(ptr noundef nonnull %3) #16
  %20 = getelementptr inbounds nuw i8, ptr %0, i64 96
  %21 = load ptr, ptr %20, align 8
  %.not = icmp eq ptr %21, null
  br i1 %.not, label %23, label %22

22:                                               ; preds = %Vec_VecFree.exit
  tail call void @free(ptr noundef nonnull %21) #16
  store ptr null, ptr %20, align 8
  br label %23

23:                                               ; preds = %Vec_VecFree.exit, %22
  %24 = getelementptr inbounds nuw i8, ptr %0, i64 40
  %25 = load ptr, ptr %24, align 8
  %.not31 = icmp eq ptr %25, null
  br i1 %.not31, label %27, label %26

26:                                               ; preds = %23
  tail call void @free(ptr noundef nonnull %25) #16
  store ptr null, ptr %24, align 8
  br label %27

27:                                               ; preds = %23, %26
  %28 = getelementptr inbounds nuw i8, ptr %0, i64 48
  %29 = load ptr, ptr %28, align 8
  %.not32 = icmp eq ptr %29, null
  br i1 %.not32, label %31, label %30

30:                                               ; preds = %27
  tail call void @free(ptr noundef nonnull %29) #16
  store ptr null, ptr %28, align 8
  br label %31

31:                                               ; preds = %27, %30
  %32 = getelementptr inbounds nuw i8, ptr %0, i64 56
  %33 = load ptr, ptr %32, align 8
  %.not33 = icmp eq ptr %33, null
  br i1 %.not33, label %35, label %34

34:                                               ; preds = %31
  tail call void @free(ptr noundef nonnull %33) #16
  store ptr null, ptr %32, align 8
  br label %35

35:                                               ; preds = %31, %34
  %36 = getelementptr inbounds nuw i8, ptr %0, i64 64
  %37 = load ptr, ptr %36, align 8
  %.not34 = icmp eq ptr %37, null
  br i1 %.not34, label %39, label %38

38:                                               ; preds = %35
  tail call void @free(ptr noundef nonnull %37) #16
  store ptr null, ptr %36, align 8
  br label %39

39:                                               ; preds = %35, %38
  %40 = getelementptr inbounds nuw i8, ptr %0, i64 72
  %41 = load ptr, ptr %40, align 8
  %.not35 = icmp eq ptr %41, null
  br i1 %.not35, label %43, label %42

42:                                               ; preds = %39
  tail call void @free(ptr noundef nonnull %41) #16
  store ptr null, ptr %40, align 8
  br label %43

43:                                               ; preds = %39, %42
  %44 = getelementptr inbounds nuw i8, ptr %0, i64 112
  %45 = load ptr, ptr %44, align 8
  %.not36 = icmp eq ptr %45, null
  br i1 %.not36, label %47, label %46

46:                                               ; preds = %43
  tail call void @free(ptr noundef nonnull %45) #16
  br label %47

47:                                               ; preds = %43, %46
  tail call void @free(ptr noundef nonnull %0) #16
  ret void
}